; Function Attrs: nounwind uwtable
define void @Json_ReadTest(ptr noundef %0) local_unnamed_addr #2 {
  %2 = alloca ptr, align 8
  %3 = call ptr @Json_Read(ptr noundef %0, ptr noundef nonnull %2)
  %4 = icmp eq ptr %3, null
  br i1 %4, label %32, label %5

5:                                                ; preds = %1
  %6 = load ptr, ptr %2, align 8
  %7 = tail call noalias ptr @fopen(ptr noundef nonnull @.str.54, ptr noundef nonnull @.str.35)
  %8 = icmp eq ptr %7, null
  br i1 %8, label %9, label %11

9:                                                ; preds = %5
  %10 = tail call i32 (ptr, ...) @printf(ptr noundef nonnull dereferenceable(1) @.str.36, ptr noundef nonnull @.str.54)
  br label %Json_Write.exit

11:                                               ; preds = %5
  %12 = getelementptr i8, ptr %3, i64 8
  %.val.i = load ptr, ptr %12, align 8
  tail call void @Json_Write_rec(ptr noundef nonnull %7, ptr noundef %6, ptr noundef nonnull %3, ptr noundef %.val.i, i32 noundef 1, i32 noundef 0, i32 noundef 1)
  %13 = tail call i32 @fclose(ptr noundef nonnull %7)
  br label %Json_Write.exit

Json_Write.exit:                                  ; preds = %9, %11
  tail call void @Abc_NamDeref(ptr noundef %6) #13
  %14 = load i32, ptr %3, align 8
  %15 = icmp sgt i32 %14, 0
  br i1 %15, label %.lr.ph.i.i, label %._crit_edge.i.i

.lr.ph.i.i:                                       ; preds = %Json_Write.exit
  %16 = getelementptr inbounds nuw i8, ptr %3, i64 8
  br label %17

17:                                               ; preds = %25, %.lr.ph.i.i
  %18 = phi i32 [ %14, %.lr.ph.i.i ], [ %26, %25 ]
  %indvars.iv.i.i = phi i64 [ 0, %.lr.ph.i.i ], [ %indvars.iv.next.i.i, %25 ]
  %19 = load ptr, ptr %16, align 8
  %20 = getelementptr inbounds nuw %struct.Vec_Int_t_, ptr %19, i64 %indvars.iv.i.i, i32 2
  %21 = load ptr, ptr %20, align 8
  %.not15.i.i = icmp eq ptr %21, null
  br i1 %.not15.i.i, label %25, label %22

22:                                               ; preds = %17
  tail call void @free(ptr noundef nonnull %21) #13
  %23 = load ptr, ptr %16, align 8
  %24 = getelementptr inbounds nuw %struct.Vec_Int_t_, ptr %23, i64 %indvars.iv.i.i, i32 2
  store ptr null, ptr %24, align 8
  %.pre.i.i = load i32, ptr %3, align 8
  br label %25

25:                                               ; preds = %22, %17
  %26 = phi i32 [ %.pre.i.i, %22 ], [ %18, %17 ]
  %indvars.iv.next.i.i = add nuw nsw i64 %indvars.iv.i.i, 1
  %27 = sext i32 %26 to i64
  %28 = icmp slt i64 %indvars.iv.next.i.i, %27
  br i1 %28, label %17, label %._crit_edge.i.i, !llvm.loop !12

._crit_edge.i.i:                                  ; preds = %25, %Json_Write.exit
  %29 = getelementptr inbounds nuw i8, ptr %3, i64 8
  %30 = load ptr, ptr %29, align 8
  %.not.i.i = icmp eq ptr %30, null
  br i1 %.not.i.i, label %Vec_WecFree.exit, label %31

31:                                               ; preds = %._crit_edge.i.i
  tail call void @free(ptr noundef nonnull %30) #13
  br label %Vec_WecFree.exit

Vec_WecFree.exit:                                 ; preds = %._crit_edge.i.i, %31
  tail call void @free(ptr noundef nonnull %3) #13
  br label %32

32:                                               ; preds = %1, %Vec_WecFree.exit
  ret void
}